target datalayout = "e-m:e-p270:32:32-p271:32:32-p272:64:64-i64:64-i128:128-f80:128-n8:16:32:64-S128"
target triple = "x86_64-unknown-linux-gnu"

%struct.sp_int = type { i32, i32, [129 x i64] }

; Function Attrs: nounwind uwtable
define internal void @ForceZero(ptr noundef %mem, i32 noundef %len) #0 {
entry:
  %mem.addr = alloca ptr, align 8
  %len.addr = alloca i32, align 4
  %z = alloca ptr, align 8
  %w = alloca ptr, align 8
  %l = alloca i32, align 4
  store ptr %mem, ptr %mem.addr, align 8
  store i32 %len, ptr %len.addr, align 4
  %0 = load ptr, ptr %mem.addr, align 8
  store ptr %0, ptr %z, align 8
  %1 = load ptr, ptr %z, align 8
  %2 = ptrtoint ptr %1 to i64
  %and = and i64 %2, 7
  %sub = sub i64 8, %and
  %and1 = and i64 %sub, 7
  %conv = trunc i64 %and1 to i32
  store i32 %conv, ptr %l, align 4
  %3 = load i32, ptr %len.addr, align 4
  %4 = load i32, ptr %l, align 4
  %cmp = icmp ult i32 %3, %4
  br i1 %cmp, label %if.then, label %if.end

if.then:                                          ; preds = %entry
  %5 = load i32, ptr %len.addr, align 4
  store i32 %5, ptr %l, align 4
  br label %if.end

if.end:                                           ; preds = %if.then, %entry
  %6 = load i32, ptr %l, align 4
  %7 = load i32, ptr %len.addr, align 4
  %sub3 = sub i32 %7, %6
  store i32 %sub3, ptr %len.addr, align 4
  br label %while.cond

while.cond:                                       ; preds = %while.body, %if.end
  %8 = load i32, ptr %l, align 4
  %dec = add i32 %8, -1
  store i32 %dec, ptr %l, align 4
  %tobool = icmp ne i32 %8, 0
  br i1 %tobool, label %while.body, label %while.end

while.body:                                       ; preds = %while.cond
  %9 = load ptr, ptr %z, align 8
  %incdec.ptr = getelementptr inbounds i8, ptr %9, i32 1
  store ptr %incdec.ptr, ptr %z, align 8
  store volatile i8 0, ptr %9, align 1
  br label %while.cond, !llvm.loop !17

while.end:                                        ; preds = %while.cond
  %10 = load ptr, ptr %z, align 8
  store ptr %10, ptr %w, align 8
  br label %for.cond

for.cond:                                         ; preds = %for.inc, %while.end
  %11 = load i32, ptr %len.addr, align 4
  %conv4 = zext i32 %11 to i64
  %cmp5 = icmp uge i64 %conv4, 8
  br i1 %cmp5, label %for.body, label %for.end

for.body:                                         ; preds = %for.cond
  %12 = load ptr, ptr %w, align 8
  %incdec.ptr7 = getelementptr inbounds i64, ptr %12, i32 1
  store ptr %incdec.ptr7, ptr %w, align 8
  store volatile i64 0, ptr %12, align 8
  br label %for.inc

for.inc:                                          ; preds = %for.body
  %13 = load i32, ptr %len.addr, align 4
  %sub8 = sub i32 %13, 8
  store i32 %sub8, ptr %len.addr, align 4
  br label %for.cond, !llvm.loop !18

for.end:                                          ; preds = %for.cond
  %14 = load ptr, ptr %w, align 8
  store ptr %14, ptr %z, align 8
  br label %while.cond9

while.cond9:                                      ; preds = %while.body12, %for.end
  %15 = load i32, ptr %len.addr, align 4
  %dec10 = add i32 %15, -1
  store i32 %dec10, ptr %len.addr, align 4
  %tobool11 = icmp ne i32 %15, 0
  br i1 %tobool11, label %while.body12, label %while.end14

while.body12:                                     ; preds = %while.cond9
  %16 = load ptr, ptr %z, align 8
  %incdec.ptr13 = getelementptr inbounds i8, ptr %16, i32 1
  store ptr %incdec.ptr13, ptr %z, align 8
  store volatile i8 0, ptr %16, align 1
  br label %while.cond9, !llvm.loop !19

while.end14:                                      ; preds = %while.cond9
  ret void
}

; Function Attrs: nounwind uwtable
define i32 @wc_ecc_gen_k(ptr noundef %rng, i32 noundef %size, ptr noundef %k, ptr noundef %order) #0 {
entry:
  %retval = alloca i32, align 4
  %rng.addr = alloca ptr, align 8
  %size.addr = alloca i32, align 4
  %k.addr = alloca ptr, align 8
  %order.addr = alloca ptr, align 8
  %err = alloca i32, align 4
  %buf = alloca [74 x i8], align 16
  store ptr %rng, ptr %rng.addr, align 8
  store i32 %size, ptr %size.addr, align 4
  store ptr %k, ptr %k.addr, align 8
  store ptr %order, ptr %order.addr, align 8
  %0 = load ptr, ptr %rng.addr, align 8
  %cmp = icmp eq ptr %0, null
  br i1 %cmp, label %if.then, label %lor.lhs.false

lor.lhs.false:                                    ; preds = %entry
  %1 = load i32, ptr %size.addr, align 4
  %cmp1 = icmp slt i32 %1, 0
  br i1 %cmp1, label %if.then, label %lor.lhs.false2

lor.lhs.false2:                                   ; preds = %lor.lhs.false
  %2 = load i32, ptr %size.addr, align 4
  %add = add nsw i32 %2, 8
  %cmp3 = icmp sgt i32 %add, 74
  br i1 %cmp3, label %if.then, label %lor.lhs.false4

lor.lhs.false4:                                   ; preds = %lor.lhs.false2
  %3 = load ptr, ptr %k.addr, align 8
  %cmp5 = icmp eq ptr %3, null
  br i1 %cmp5, label %if.then, label %lor.lhs.false6

lor.lhs.false6:                                   ; preds = %lor.lhs.false4
  %4 = load ptr, ptr %order.addr, align 8
  %cmp7 = icmp eq ptr %4, null
  br i1 %cmp7, label %if.then, label %if.end

if.then:                                          ; preds = %lor.lhs.false6, %lor.lhs.false4, %lor.lhs.false2, %lor.lhs.false, %entry
  store i32 -173, ptr %retval, align 4
  br label %return

if.end:                                           ; preds = %lor.lhs.false6
  %5 = load i32, ptr %size.addr, align 4
  %add8 = add nsw i32 %5, 8
  store i32 %add8, ptr %size.addr, align 4
  %6 = load ptr, ptr %rng.addr, align 8
  %arraydecay = getelementptr inbounds [74 x i8], ptr %buf, i64 0, i64 0
  %7 = load i32, ptr %size.addr, align 4
  %call = call i32 @wc_RNG_GenerateBlock(ptr noundef %6, ptr noundef %arraydecay, i32 noundef %7)
  store i32 %call, ptr %err, align 4
  %8 = load i32, ptr %err, align 4
  %cmp9 = icmp eq i32 %8, 0
  br i1 %cmp9, label %if.then10, label %if.end13

if.then10:                                        ; preds = %if.end
  %9 = load ptr, ptr %k.addr, align 8
  %arraydecay11 = getelementptr inbounds [74 x i8], ptr %buf, i64 0, i64 0
  %10 = load i32, ptr %size.addr, align 4
  %call12 = call i32 @sp_read_unsigned_bin(ptr noundef %9, ptr noundef %arraydecay11, i32 noundef %10)
  store i32 %call12, ptr %err, align 4
  br label %if.end13

if.end13:                                         ; preds = %if.then10, %if.end
  %11 = load i32, ptr %err, align 4
  %cmp14 = icmp eq i32 %11, 0
  br i1 %cmp14, label %if.then15, label %if.end21

if.then15:                                        ; preds = %if.end13
  %12 = load ptr, ptr %k.addr, align 8
  %13 = load ptr, ptr %order.addr, align 8
  %call16 = call i32 @sp_cmp(ptr noundef %12, ptr noundef %13)
  %cmp17 = icmp ne i32 %call16, -1
  br i1 %cmp17, label %if.then18, label %if.end20

if.then18:                                        ; preds = %if.then15
  %14 = load ptr, ptr %k.addr, align 8
  %15 = load ptr, ptr %order.addr, align 8
  %16 = load ptr, ptr %k.addr, align 8
  %call19 = call i32 @sp_mod(ptr noundef %14, ptr noundef %15, ptr noundef %16)
  store i32 %call19, ptr %err, align 4
  br label %if.end20

if.end20:                                         ; preds = %if.then18, %if.then15
  br label %if.end21

if.end21:                                         ; preds = %if.end20, %if.end13
  %17 = load i32, ptr %err, align 4
  %cmp22 = icmp eq i32 %17, 0
  br i1 %cmp22, label %if.then23, label %if.end29

if.then23:                                        ; preds = %if.end21
  %18 = load ptr, ptr %k.addr, align 8
  %used = getelementptr inbounds %struct.sp_int, ptr %18, i32 0, i32 0
  %19 = load i32, ptr %used, align 8
  %cmp24 = icmp eq i32 %19, 0
  %conv = zext i1 %cmp24 to i32
  %cmp25 = icmp eq i32 %conv, 1
  br i1 %cmp25, label %if.then27, label %if.end28

if.then27:                                        ; preds = %if.then23
  store i32 -121, ptr %err, align 4
  br label %if.end28

if.end28:                                         ; preds = %if.then27, %if.then23
  br label %if.end29

if.end29:                                         ; preds = %if.end28, %if.end21
  %arraydecay30 = getelementptr inbounds [74 x i8], ptr %buf, i64 0, i64 0
  call void @ForceZero(ptr noundef %arraydecay30, i32 noundef 74)
  %20 = load i32, ptr %err, align 4
  store i32 %20, ptr %retval, align 4
  br label %return

return:                                           ; preds = %if.end29, %if.then
  %21 = load i32, ptr %retval, align 4
  ret i32 %21
}