; Function Attrs: nounwind uwtable
define i32 @wc_ecc_gen_k(ptr noundef %rng, i32 noundef %size, ptr noundef %k, ptr noundef %order) local_unnamed_addr #2 {
entry:
  %buf = alloca [74 x i8], align 16
  %cmp = icmp eq ptr %rng, null
  %cmp1 = icmp slt i32 %size, 0
  %or.cond = or i1 %cmp, %cmp1
  br i1 %or.cond, label %return, label %lor.lhs.false2

lor.lhs.false2:                                   ; preds = %entry
  %add = add nuw nsw i32 %size, 8
  %cmp3 = icmp samesign ugt i32 %size, 66
  %cmp5 = icmp eq ptr %k, null
  %or.cond1 = or i1 %cmp3, %cmp5
  %cmp7 = icmp eq ptr %order, null
  %or.cond2 = or i1 %or.cond1, %cmp7
  br i1 %or.cond2, label %return, label %if.end

if.end:                                           ; preds = %lor.lhs.false2
  %call = call i32 @wc_RNG_GenerateBlock(ptr noundef nonnull %rng, ptr noundef nonnull %buf, i32 noundef %add) #19
  %cmp9 = icmp eq i32 %call, 0
  br i1 %cmp9, label %if.end13, label %for.body.preheader.i

if.end13:                                         ; preds = %if.end
  %call12 = call i32 @sp_read_unsigned_bin(ptr noundef nonnull %k, ptr noundef nonnull %buf, i32 noundef %add) #19
  %cmp14 = icmp eq i32 %call12, 0
  br i1 %cmp14, label %if.then15, label %for.body.preheader.i

if.then15:                                        ; preds = %if.end13
  %call16 = call i32 @sp_cmp(ptr noundef nonnull %k, ptr noundef nonnull %order) #19
  %cmp17.not = icmp eq i32 %call16, -1
  br i1 %cmp17.not, label %if.then23, label %if.end21

if.end21:                                         ; preds = %if.then15
  %call19 = call i32 @sp_mod(ptr noundef nonnull %k, ptr noundef nonnull %order, ptr noundef nonnull %k) #19
  %cmp22 = icmp eq i32 %call19, 0
  br i1 %cmp22, label %if.then23, label %for.body.preheader.i

if.then23:                                        ; preds = %if.then15, %if.end21
  %0 = load i32, ptr %k, align 8
  %cmp24 = icmp eq i32 %0, 0
  %spec.select = select i1 %cmp24, i32 -121, i32 0
  br label %for.body.preheader.i

for.body.preheader.i:                             ; preds = %if.end21, %if.then23, %if.end13, %if.end
  %err.2 = phi i32 [ %call19, %if.end21 ], [ %spec.select, %if.then23 ], [ %call12, %if.end13 ], [ %call, %if.end ]
  br label %for.body.i

for.body.i:                                       ; preds = %for.body.i, %for.body.preheader.i
  %w.017.i = phi ptr [ %incdec.ptr7.i, %for.body.i ], [ %buf, %for.body.preheader.i ]
  %len.addr.016.i = phi i32 [ %sub8.i, %for.body.i ], [ 74, %for.body.preheader.i ]
  %incdec.ptr7.i = getelementptr inbounds nuw i8, ptr %w.017.i, i64 8
  store volatile i64 0, ptr %w.017.i, align 8
  %sub8.i = add nsw i32 %len.addr.016.i, -8
  %cmp5.i = icmp ugt i32 %sub8.i, 7
  br i1 %cmp5.i, label %for.body.i, label %while.body12.i, !llvm.loop !16

while.body12.i:                                   ; preds = %for.body.i, %while.body12.i
  %z.122.i = phi ptr [ %incdec.ptr13.i, %while.body12.i ], [ %incdec.ptr7.i, %for.body.i ]
  %len.addr.121.i = phi i32 [ %dec10.i, %while.body12.i ], [ 2, %for.body.i ]
  %dec10.i = add nsw i32 %len.addr.121.i, -1
  %incdec.ptr13.i = getelementptr inbounds nuw i8, ptr %z.122.i, i64 1
  store volatile i8 0, ptr %z.122.i, align 1
  %tobool11.not.i = icmp eq i32 %dec10.i, 0
  br i1 %tobool11.not.i, label %return, label %while.body12.i, !llvm.loop !17

return:                                           ; preds = %while.body12.i, %entry, %lor.lhs.false2
  %retval.0 = phi i32 [ -173, %lor.lhs.false2 ], [ -173, %entry ], [ %err.2, %while.body12.i ]
  ret i32 %retval.0
}